ARM GAS  C:\Users\Timmo\AppData\Local\Temp\cchjhCa7.s 			page 1


   1              		.syntax unified
   2              		.cpu cortex-m3
   3              		.fpu softvfp
   4              		.eabi_attribute 20, 1
   5              		.eabi_attribute 21, 1
   6              		.eabi_attribute 23, 3
   7              		.eabi_attribute 24, 1
   8              		.eabi_attribute 25, 1
   9              		.eabi_attribute 26, 1
  10              		.eabi_attribute 30, 1
  11              		.eabi_attribute 34, 1
  12              		.eabi_attribute 18, 4
  13              		.thumb
  14              		.syntax unified
  15              		.file	"DriverControls.c"
  16              		.text
  17              	.Ltext0:
  18              		.cfi_sections	.debug_frame
  19              		.section	.text.BrakeInputPlausibility,"ax",%progbits
  20              		.align	2
  21              		.global	BrakeInputPlausibility
  22              		.thumb
  23              		.thumb_func
  24              		.type	BrakeInputPlausibility, %function
  25              	BrakeInputPlausibility:
  26              	.LFB0:
  27              		.file 1 "DriverControls.c"
   1:DriverControls.c **** /* ========================================
   2:DriverControls.c ****  *
   3:DriverControls.c ****  * Copyright YOUR COMPANY, THE YEAR
   4:DriverControls.c ****  * All Rights Reserved
   5:DriverControls.c ****  * UNPUBLISHED, LICENSED SOFTWARE.
   6:DriverControls.c ****  *
   7:DriverControls.c ****  * CONFIDENTIAL AND PROPRIETARY INFORMATION
   8:DriverControls.c ****  * WHICH IS THE PROPERTY OF your company.
   9:DriverControls.c ****  *
  10:DriverControls.c ****  * ========================================
  11:DriverControls.c **** */
  12:DriverControls.c **** #include "global.h"
  13:DriverControls.c **** #include "DriverControls.h"
  14:DriverControls.c **** 
  15:DriverControls.c **** 
  16:DriverControls.c **** 
  17:DriverControls.c **** 
  18:DriverControls.c **** //Declare Variables
  19:DriverControls.c **** 
  20:DriverControls.c **** 
  21:DriverControls.c **** 
  22:DriverControls.c **** //Function Prototypes
  23:DriverControls.c **** 
  24:DriverControls.c **** 
  25:DriverControls.c **** //Function Definitions
  26:DriverControls.c **** 
  27:DriverControls.c **** //Is the brake handle input an acceptable value
  28:DriverControls.c **** int BrakeInputPlausibility()
  29:DriverControls.c **** {
  28              		.loc 1 29 0
ARM GAS  C:\Users\Timmo\AppData\Local\Temp\cchjhCa7.s 			page 2


  29              		.cfi_startproc
  30              		@ args = 0, pretend = 0, frame = 0
  31              		@ frame_needed = 0, uses_anonymous_args = 0
  32 0000 10B5     		push	{r4, lr}
  33              		.cfi_def_cfa_offset 8
  34              		.cfi_offset 4, -8
  35              		.cfi_offset 14, -4
  30:DriverControls.c ****     //Take a snapshot of brake input sensors
  31:DriverControls.c ****     int BrakeInput1 = aiECU_BrakeInput1_read();
  36              		.loc 1 31 0
  37 0002 FFF7FEFF 		bl	aiECU_BrakeInput1_read
  38              	.LVL0:
  39 0006 0446     		mov	r4, r0
  40              	.LVL1:
  32:DriverControls.c ****     int BrakeInput2 = aiECU_BrakeInput2_read();
  41              		.loc 1 32 0
  42 0008 FFF7FEFF 		bl	aiECU_BrakeInput2_read
  43              	.LVL2:
  33:DriverControls.c ****     
  34:DriverControls.c ****     //Check that Brake input is within tolerance
  35:DriverControls.c ****     if( BrakeInput1 < BrakeSensor1_min)
  44              		.loc 1 35 0
  45 000c 0E2C     		cmp	r4, #14
  46 000e 02DC     		bgt	.L2
  47              	.LBB2:
  36:DriverControls.c ****     {
  37:DriverControls.c ****         SetDTC_f010_Brake1InputOC();
  48              		.loc 1 37 0
  49 0010 FFF7FEFF 		bl	SetDTC_f010_Brake1InputOC
  50              	.LVL3:
  51              	.LBE2:
  52 0014 07E0     		b	.L3
  53              	.L2:
  38:DriverControls.c ****     }
  39:DriverControls.c ****     else if ( BrakeInput1 > BrakeSensor1_max )
  54              		.loc 1 39 0
  55 0016 B4F5007F 		cmp	r4, #512
  56 001a 02DB     		blt	.L4
  57              	.LBB3:
  40:DriverControls.c ****     {
  41:DriverControls.c ****         SetDTC_f011_Brake1InputSC();
  58              		.loc 1 41 0
  59 001c FFF7FEFF 		bl	SetDTC_f011_Brake1InputSC
  60              	.LVL4:
  61              	.LBE3:
  62 0020 01E0     		b	.L3
  63              	.L4:
  42:DriverControls.c ****     }
  43:DriverControls.c ****     else
  44:DriverControls.c ****     {
  45:DriverControls.c ****         return BrakeInput1;
  64              		.loc 1 45 0
  65 0022 2046     		mov	r0, r4
  66 0024 10BD     		pop	{r4, pc}
  67              	.LVL5:
  68              	.L3:
  46:DriverControls.c ****     }
ARM GAS  C:\Users\Timmo\AppData\Local\Temp\cchjhCa7.s 			page 3


  47:DriverControls.c **** }
  69              		.loc 1 47 0
  70 0026 10BD     		pop	{r4, pc}
  71              		.cfi_endproc
  72              	.LFE0:
  73              		.size	BrakeInputPlausibility, .-BrakeInputPlausibility
  74              		.section	.text.OutputBrakeLight,"ax",%progbits
  75              		.align	2
  76              		.global	OutputBrakeLight
  77              		.thumb
  78              		.thumb_func
  79              		.type	OutputBrakeLight, %function
  80              	OutputBrakeLight:
  81              	.LFB1:
  48:DriverControls.c **** 
  49:DriverControls.c **** //------------------------------------------------------------//
  50:DriverControls.c **** 
  51:DriverControls.c **** _Bool OutputBrakeLight()
  52:DriverControls.c **** {
  82              		.loc 1 52 0
  83              		.cfi_startproc
  84              		@ args = 0, pretend = 0, frame = 0
  85              		@ frame_needed = 0, uses_anonymous_args = 0
  86 0000 08B5     		push	{r3, lr}
  87              		.cfi_def_cfa_offset 8
  88              		.cfi_offset 3, -8
  89              		.cfi_offset 14, -4
  53:DriverControls.c ****     doECU_BrakeLight_write(BrakeInputPlausibility() > BrakeLightThreshold);
  90              		.loc 1 53 0
  91 0002 FFF7FEFF 		bl	BrakeInputPlausibility
  92              	.LVL6:
  93 0006 1428     		cmp	r0, #20
  94 0008 D4BF     		ite	le
  95 000a 0020     		movle	r0, #0
  96 000c 0120     		movgt	r0, #1
  97 000e FFF7FEFF 		bl	doECU_BrakeLight_write
  98              	.LVL7:
  54:DriverControls.c **** }
  99              		.loc 1 54 0
 100 0012 08BD     		pop	{r3, pc}
 101              		.cfi_endproc
 102              	.LFE1:
 103              		.size	OutputBrakeLight, .-OutputBrakeLight
 104              		.text
 105              	.Letext0: