ARM GAS  C:\Users\Timmo\AppData\Local\Temp\cclwVH1o.s 			page 1


   1              		.syntax unified
   2              		.cpu cortex-m3
   3              		.fpu softvfp
   4              		.eabi_attribute 20, 1
   5              		.eabi_attribute 21, 1
   6              		.eabi_attribute 23, 3
   7              		.eabi_attribute 24, 1
   8              		.eabi_attribute 25, 1
   9              		.eabi_attribute 26, 1
  10              		.eabi_attribute 30, 1
  11              		.eabi_attribute 34, 1
  12              		.eabi_attribute 18, 4
  13              		.thumb
  14              		.syntax unified
  15              		.file	"IVT-S.c"
  16              		.text
  17              	.Ltext0:
  18              		.cfi_sections	.debug_frame
  19              		.section	.text.Configure_IVT,"ax",%progbits
  20              		.align	2
  21              		.global	Configure_IVT
  22              		.thumb
  23              		.thumb_func
  24              		.type	Configure_IVT, %function
  25              	Configure_IVT:
  26              	.LFB0:
  27              		.file 1 "IVT-S.c"
   1:IVT-S.c       **** /* ========================================
   2:IVT-S.c       ****  *
   3:IVT-S.c       ****  * Copyright YOUR COMPANY, THE YEAR
   4:IVT-S.c       ****  * All Rights Reserved
   5:IVT-S.c       ****  * UNPUBLISHED, LICENSED SOFTWARE.
   6:IVT-S.c       ****  *
   7:IVT-S.c       ****  * CONFIDENTIAL AND PROPRIETARY INFORMATION
   8:IVT-S.c       ****  * WHICH IS THE PROPERTY OF your company.
   9:IVT-S.c       ****  *
  10:IVT-S.c       ****  * ========================================
  11:IVT-S.c       **** */
  12:IVT-S.c       **** 
  13:IVT-S.c       **** #include "IVT-S.h"
  14:IVT-S.c       **** 
  15:IVT-S.c       **** 
  16:IVT-S.c       **** int iBat = 0;
  17:IVT-S.c       **** int vBat = 0;
  18:IVT-S.c       **** 
  19:IVT-S.c       **** 
  20:IVT-S.c       **** 
  21:IVT-S.c       **** //-------------------------------------------------------------
  22:IVT-S.c       **** 
  23:IVT-S.c       **** Configure_IVT()
  24:IVT-S.c       **** {
  28              		.loc 1 24 0
  29              		.cfi_startproc
  30              		@ args = 0, pretend = 0, frame = 0
  31              		@ frame_needed = 0, uses_anonymous_args = 0
  32              		@ link register save eliminated.
  33 0000 7047     		bx	lr
ARM GAS  C:\Users\Timmo\AppData\Local\Temp\cclwVH1o.s 			page 2


  34              		.cfi_endproc
  35              	.LFE0:
  36              		.size	Configure_IVT, .-Configure_IVT
  37 0002 00BF     		.section	.text.GetCurrent,"ax",%progbits
  38              		.align	2
  39              		.global	GetCurrent
  40              		.thumb
  41              		.thumb_func
  42              		.type	GetCurrent, %function
  43              	GetCurrent:
  44              	.LFB1:
  25:IVT-S.c       **** 	//Insert Configuration Code here
  26:IVT-S.c       **** 	//
  27:IVT-S.c       **** 
  28:IVT-S.c       **** }
  29:IVT-S.c       **** 
  30:IVT-S.c       **** //-------------------------------------------------------------
  31:IVT-S.c       **** 
  32:IVT-S.c       **** GetCurrent()
  33:IVT-S.c       **** {
  45              		.loc 1 33 0
  46              		.cfi_startproc
  47              		@ args = 0, pretend = 0, frame = 0
  48              		@ frame_needed = 0, uses_anonymous_args = 0
  49              		.loc 1 33 0
  50 0000 08B5     		push	{r3, lr}
  51              		.cfi_def_cfa_offset 8
  52              		.cfi_offset 3, -8
  53              		.cfi_offset 14, -4
  34:IVT-S.c       **** 	//Recieve Current from IVT-S
  35:IVT-S.c       **** 	iBat = Get_IVT_I();
  54              		.loc 1 35 0
  55 0002 FFF7FEFF 		bl	Get_IVT_I
  56              	.LVL0:
  57 0006 0A4B     		ldr	r3, .L7
  58 0008 1860     		str	r0, [r3]
  36:IVT-S.c       **** 	//Check that current is in acceptable range
  37:IVT-S.c       **** 	if ( iBat > CURRENT_MAX )
  59              		.loc 1 37 0
  60 000a B0F57A7F 		cmp	r0, #1000
  61 000e 02DD     		ble	.L3
  62              	.LBB2:
  38:IVT-S.c       **** 	{
  39:IVT-S.c       **** 		SetDTC_f030_PackPosOvercurrent();
  63              		.loc 1 39 0
  64 0010 FFF7FEFF 		bl	SetDTC_f030_PackPosOvercurrent
  65              	.LVL1:
  66              	.LBE2:
  67 0014 09E0     		b	.L4
  68              	.L3:
  40:IVT-S.c       **** 	}
  41:IVT-S.c       **** 	else if ( iBat < CURRENT_MIN )
  69              		.loc 1 41 0
  70 0016 10F57A7F 		cmn	r0, #1000
  71 001a 02DA     		bge	.L5
  72              	.LBB3:
  42:IVT-S.c       **** 	{
ARM GAS  C:\Users\Timmo\AppData\Local\Temp\cclwVH1o.s 			page 3


  43:IVT-S.c       **** 		SetDTC_f031_PackNegOvercurrent();
  73              		.loc 1 43 0
  74 001c FFF7FEFF 		bl	SetDTC_f031_PackNegOvercurrent
  75              	.LVL2:
  76              	.LBE3:
  77 0020 03E0     		b	.L4
  78              	.L5:
  79              	.LBB4:
  44:IVT-S.c       **** 	}
  45:IVT-S.c       **** 	else
  46:IVT-S.c       **** 	{
  47:IVT-S.c       **** 		ClearDTC_f030_PackPosOvercurrent();
  80              		.loc 1 47 0
  81 0022 FFF7FEFF 		bl	ClearDTC_f030_PackPosOvercurrent
  82              	.LVL3:
  48:IVT-S.c       **** 		ClearDTC_f031_PackNegOvercurrent();
  83              		.loc 1 48 0
  84 0026 FFF7FEFF 		bl	ClearDTC_f031_PackNegOvercurrent
  85              	.LVL4:
  86              	.L4:
  87              	.LBE4:
  49:IVT-S.c       **** 	}
  50:IVT-S.c       **** 
  51:IVT-S.c       **** 	return iBat;
  52:IVT-S.c       **** 
  53:IVT-S.c       **** }
  88              		.loc 1 53 0
  89 002a 014B     		ldr	r3, .L7
  90 002c 1868     		ldr	r0, [r3]
  91 002e 08BD     		pop	{r3, pc}
  92              	.L8:
  93              		.align	2
  94              	.L7:
  95 0030 00000000 		.word	.LANCHOR0
  96              		.cfi_endproc
  97              	.LFE1:
  98              		.size	GetCurrent, .-GetCurrent
  99              		.section	.text.GetVoltage,"ax",%progbits
 100              		.align	2
 101              		.global	GetVoltage
 102              		.thumb
 103              		.thumb_func
 104              		.type	GetVoltage, %function
 105              	GetVoltage:
 106              	.LFB2:
  54:IVT-S.c       **** 
  55:IVT-S.c       **** //-------------------------------------------------------------
  56:IVT-S.c       **** 
  57:IVT-S.c       **** GetVoltage()
  58:IVT-S.c       **** {
 107              		.loc 1 58 0
 108              		.cfi_startproc
 109              		@ args = 0, pretend = 0, frame = 0
 110              		@ frame_needed = 0, uses_anonymous_args = 0
 111 0000 08B5     		push	{r3, lr}
 112              		.cfi_def_cfa_offset 8
 113              		.cfi_offset 3, -8
ARM GAS  C:\Users\Timmo\AppData\Local\Temp\cclwVH1o.s 			page 4


 114              		.cfi_offset 14, -4
  59:IVT-S.c       **** 	vBat = Get_IVT_Vbat();
 115              		.loc 1 59 0
 116 0002 FFF7FEFF 		bl	Get_IVT_Vbat
 117              	.LVL5:
 118 0006 084B     		ldr	r3, .L13
 119 0008 5860     		str	r0, [r3, #4]
  60:IVT-S.c       **** 	//Check that Voltage is in acceptable range
  61:IVT-S.c       **** 	if( vBat > VOLTAGE_MAX )
 120              		.loc 1 61 0
 121 000a B0F5487F 		cmp	r0, #800
 122 000e 02DD     		ble	.L10
 123              	.LBB5:
  62:IVT-S.c       **** 	{
  63:IVT-S.c       **** 		SetDTC_a040_PackOverV();
 124              		.loc 1 63 0
 125 0010 FFF7FEFF 		bl	SetDTC_a040_PackOverV
 126              	.LVL6:
 127              	.LBE5:
 128 0014 04E0     		b	.L11
 129              	.L10:
  64:IVT-S.c       **** 	}
  65:IVT-S.c       **** 	else if ( vBat < VOLTAGE_MIN )
 130              		.loc 1 65 0
 131 0016 B0F5C87F 		cmp	r0, #400
 132 001a 01DA     		bge	.L11
 133              	.LBB6:
  66:IVT-S.c       **** 	{
  67:IVT-S.c       **** 		SetDTC_a041_PackUnderV();
 134              		.loc 1 67 0
 135 001c FFF7FEFF 		bl	SetDTC_a041_PackUnderV
 136              	.LVL7:
 137              	.L11:
 138              	.LBE6:
  68:IVT-S.c       **** 	}
  69:IVT-S.c       **** 
  70:IVT-S.c       **** 	return vBat;
  71:IVT-S.c       **** 
  72:IVT-S.c       **** }
 139              		.loc 1 72 0
 140 0020 014B     		ldr	r3, .L13
 141 0022 5868     		ldr	r0, [r3, #4]
 142 0024 08BD     		pop	{r3, pc}
 143              	.L14:
 144 0026 00BF     		.align	2
 145              	.L13:
 146 0028 00000000 		.word	.LANCHOR0
 147              		.cfi_endproc
 148              	.LFE2:
 149              		.size	GetVoltage, .-GetVoltage
 150              		.global	vBat
 151              		.global	iBat
 152              		.comm	IVT_ModeSelect_E,1,1
 153              		.bss
 154              		.align	2
 155              		.set	.LANCHOR0,. + 0
 156              		.type	iBat, %object
ARM GAS  C:\Users\Timmo\AppData\Local\Temp\cclwVH1o.s 			page 5


 157              		.size	iBat, 4
 158              	iBat:
 159 0000 00000000 		.space	4
 160              		.type	vBat, %object
 161              		.size	vBat, 4
 162              	vBat:
 163 0004 00000000 		.space	4
 164              		.text
 165              	.Letext0:
 166              		.file 2 "IVT-S.h"