ARM GAS  C:\Users\Timmo\AppData\Local\Temp\ccbk2SVt.s 			page 1


   1              		.syntax unified
   2              		.cpu cortex-m3
   3              		.fpu softvfp
   4              		.eabi_attribute 20, 1
   5              		.eabi_attribute 21, 1
   6              		.eabi_attribute 23, 3
   7              		.eabi_attribute 24, 1
   8              		.eabi_attribute 25, 1
   9              		.eabi_attribute 26, 1
  10              		.eabi_attribute 30, 1
  11              		.eabi_attribute 34, 1
  12              		.eabi_attribute 18, 4
  13              		.thumb
  14              		.syntax unified
  15              		.file	"RelayControl.c"
  16              		.text
  17              	.Ltext0:
  18              		.cfi_sections	.debug_frame
  19              		.section	.text.PosRelayFeedback,"ax",%progbits
  20              		.align	2
  21              		.global	PosRelayFeedback
  22              		.thumb
  23              		.thumb_func
  24              		.type	PosRelayFeedback, %function
  25              	PosRelayFeedback:
  26              	.LFB1:
  27              		.file 1 "RelayControl.c"
   1:RelayControl.c **** /* ========================================
   2:RelayControl.c ****  *
   3:RelayControl.c ****  * Copyright YOUR COMPANY, THE YEAR
   4:RelayControl.c ****  * All Rights Reserved
   5:RelayControl.c ****  * UNPUBLISHED, LICENSED SOFTWARE.
   6:RelayControl.c ****  *
   7:RelayControl.c ****  * CONFIDENTIAL AND PROPRIETARY INFORMATION
   8:RelayControl.c ****  * WHICH IS THE PROPERTY OF your company.
   9:RelayControl.c ****  *
  10:RelayControl.c ****  * ========================================
  11:RelayControl.c **** */
  12:RelayControl.c **** 
  13:RelayControl.c **** #include "RelayControl.h"
  14:RelayControl.c **** #include "global.h"
  15:RelayControl.c **** #include "DTC.h"
  16:RelayControl.c **** #include "mainState.h"
  17:RelayControl.c **** 
  18:RelayControl.c **** 
  19:RelayControl.c **** //init Relays as type RelayState
  20:RelayControl.c **** enum RelayState_E PosRelay = RELAY_UNKNOWN;
  21:RelayControl.c **** enum RelayState_E NegRelay = RELAY_UNKNOWN;
  22:RelayControl.c **** enum RelayState_E PrechargeRelay = RELAY_UNKNOWN;
  23:RelayControl.c **** 
  24:RelayControl.c **** 
  25:RelayControl.c **** ClosePosRelay()
  26:RelayControl.c **** {
  27:RelayControl.c ****     //Dont close if BMS has faulted
  28:RelayControl.c ****     if( BMS_STATE_FAULT != BMS_State)
  29:RelayControl.c ****     {
  30:RelayControl.c ****         doBMS_RelayPosDrive_write(CLOSE);
ARM GAS  C:\Users\Timmo\AppData\Local\Temp\ccbk2SVt.s 			page 2


  31:RelayControl.c ****         PosRelay = RELAY_CLOSING;
  32:RelayControl.c ****         //implement delay to wait for closing
  33:RelayControl.c ****         
  34:RelayControl.c ****         if( RELAY_CLOSED == PosRelayFeedback() )
  35:RelayControl.c ****         {
  36:RelayControl.c ****             PosRelay = RELAY_CLOSED;
  37:RelayControl.c ****             ClearDTC_f010_PosRelayWeldedClosed();
  38:RelayControl.c ****         }
  39:RelayControl.c ****         else
  40:RelayControl.c ****         {
  41:RelayControl.c ****             PosRelay = RELAY_FAULT;
  42:RelayControl.c ****             SetDTC_f010_PosRelayWeldedClosed();
  43:RelayControl.c ****         }        
  44:RelayControl.c ****     }
  45:RelayControl.c ****     else
  46:RelayControl.c ****     {
  47:RelayControl.c ****         //send message to display?
  48:RelayControl.c ****         SetDTC_a010_RelayWontCloseInFault();
  49:RelayControl.c ****     }
  50:RelayControl.c **** }
  51:RelayControl.c **** 
  52:RelayControl.c **** // -------------------------------------------------------//
  53:RelayControl.c **** 
  54:RelayControl.c **** enum RelayState_E PosRelayFeedback()
  55:RelayControl.c **** {
  28              		.loc 1 55 0
  29              		.cfi_startproc
  30              		@ args = 0, pretend = 0, frame = 0
  31              		@ frame_needed = 0, uses_anonymous_args = 0
  32 0000 08B5     		push	{r3, lr}
  33              		.cfi_def_cfa_offset 8
  34              		.cfi_offset 3, -8
  35              		.cfi_offset 14, -4
  56:RelayControl.c ****     //Confirm Timer has elapsed?
  57:RelayControl.c ****     return diBMS_RelayPosFdbk_read();
  36              		.loc 1 57 0
  37 0002 FFF7FEFF 		bl	diBMS_RelayPosFdbk_read
  38              	.LVL0:
  58:RelayControl.c **** }
  39              		.loc 1 58 0
  40 0006 C0B2     		uxtb	r0, r0
  41 0008 08BD     		pop	{r3, pc}
  42              		.cfi_endproc
  43              	.LFE1:
  44              		.size	PosRelayFeedback, .-PosRelayFeedback
  45 000a 00BF     		.section	.text.ClosePosRelay,"ax",%progbits
  46              		.align	2
  47              		.global	ClosePosRelay
  48              		.thumb
  49              		.thumb_func
  50              		.type	ClosePosRelay, %function
  51              	ClosePosRelay:
  52              	.LFB0:
  26:RelayControl.c ****     //Dont close if BMS has faulted
  53              		.loc 1 26 0
  54              		.cfi_startproc
  55              		@ args = 0, pretend = 0, frame = 0
ARM GAS  C:\Users\Timmo\AppData\Local\Temp\ccbk2SVt.s 			page 3


  56              		@ frame_needed = 0, uses_anonymous_args = 0
  57 0000 08B5     		push	{r3, lr}
  58              		.cfi_def_cfa_offset 8
  59              		.cfi_offset 3, -8
  60              		.cfi_offset 14, -4
  28:RelayControl.c ****     {
  61              		.loc 1 28 0
  62 0002 0E4B     		ldr	r3, .L8
  63 0004 1B78     		ldrb	r3, [r3]	@ zero_extendqisi2
  64 0006 072B     		cmp	r3, #7
  65 0008 14D0     		beq	.L4
  66              	.LBB2:
  30:RelayControl.c ****         PosRelay = RELAY_CLOSING;
  67              		.loc 1 30 0
  68 000a 0120     		movs	r0, #1
  69 000c FFF7FEFF 		bl	doBMS_RelayPosDrive_write
  70              	.LVL1:
  31:RelayControl.c ****         //implement delay to wait for closing
  71              		.loc 1 31 0
  72 0010 0122     		movs	r2, #1
  73 0012 0B4B     		ldr	r3, .L8+4
  74 0014 1A70     		strb	r2, [r3]
  34:RelayControl.c ****         {
  75              		.loc 1 34 0
  76 0016 FFF7FEFF 		bl	PosRelayFeedback
  77              	.LVL2:
  78 001a 28B9     		cbnz	r0, .L5
  79              	.LBB3:
  36:RelayControl.c ****             ClearDTC_f010_PosRelayWeldedClosed();
  80              		.loc 1 36 0
  81 001c 0022     		movs	r2, #0
  82 001e 084B     		ldr	r3, .L8+4
  83 0020 1A70     		strb	r2, [r3]
  37:RelayControl.c ****         }
  84              		.loc 1 37 0
  85 0022 FFF7FEFF 		bl	ClearDTC_f010_PosRelayWeldedClosed
  86              	.LVL3:
  87              	.LBE3:
  88 0026 08BD     		pop	{r3, pc}
  89              	.L5:
  90              	.LBB4:
  41:RelayControl.c ****             SetDTC_f010_PosRelayWeldedClosed();
  91              		.loc 1 41 0
  92 0028 0422     		movs	r2, #4
  93 002a 054B     		ldr	r3, .L8+4
  94 002c 1A70     		strb	r2, [r3]
  42:RelayControl.c ****         }        
  95              		.loc 1 42 0
  96 002e FFF7FEFF 		bl	SetDTC_f010_PosRelayWeldedClosed
  97              	.LVL4:
  98 0032 08BD     		pop	{r3, pc}
  99              	.L4:
 100              	.LBE4:
 101              	.LBE2:
 102              	.LBB5:
  48:RelayControl.c ****     }
 103              		.loc 1 48 0
ARM GAS  C:\Users\Timmo\AppData\Local\Temp\ccbk2SVt.s 			page 4


 104 0034 FFF7FEFF 		bl	SetDTC_a010_RelayWontCloseInFault
 105              	.LVL5:
 106 0038 08BD     		pop	{r3, pc}
 107              	.L9:
 108 003a 00BF     		.align	2
 109              	.L8:
 110 003c 00000000 		.word	.LANCHOR0
 111 0040 00000000 		.word	.LANCHOR1
 112              	.LBE5:
 113              		.cfi_endproc
 114              	.LFE0:
 115              		.size	ClosePosRelay, .-ClosePosRelay
 116              		.section	.text.NegRelayFeedback,"ax",%progbits
 117              		.align	2
 118              		.global	NegRelayFeedback
 119              		.thumb
 120              		.thumb_func
 121              		.type	NegRelayFeedback, %function
 122              	NegRelayFeedback:
 123              	.LFB3:
  59:RelayControl.c **** 
  60:RelayControl.c **** // -------------------------------------------------------//
  61:RelayControl.c **** 
  62:RelayControl.c **** CloseNegRelay()
  63:RelayControl.c **** {
  64:RelayControl.c ****     //Dont close if BMS has faulted
  65:RelayControl.c ****     if( BMS_STATE_FAULT != BMS_State)
  66:RelayControl.c ****     {
  67:RelayControl.c ****         doBMS_RelayNegDrive_write(CLOSE);
  68:RelayControl.c ****         NegRelay = RELAY_CLOSING;
  69:RelayControl.c ****         //implement delay to wait for closing
  70:RelayControl.c ****         
  71:RelayControl.c ****         if( RELAY_CLOSED == NegRelayFeedback() )
  72:RelayControl.c ****         {
  73:RelayControl.c ****             NegRelay = RELAY_CLOSED;
  74:RelayControl.c ****             ClearDTC_f010_NegRelayWeldedClosed();
  75:RelayControl.c ****         }
  76:RelayControl.c ****         else
  77:RelayControl.c ****         {
  78:RelayControl.c ****             NegRelay = RELAY_FAULT;
  79:RelayControl.c ****             SetDTC_f010_NegRelayWeldedClosed();
  80:RelayControl.c ****         }        
  81:RelayControl.c ****     }
  82:RelayControl.c ****     else
  83:RelayControl.c ****     {
  84:RelayControl.c ****         //send message to display?
  85:RelayControl.c ****         SetDTC_a010_NegRelayWontCloseInFault();
  86:RelayControl.c ****     }
  87:RelayControl.c **** }
  88:RelayControl.c **** 
  89:RelayControl.c **** // -------------------------------------------------------//
  90:RelayControl.c **** 
  91:RelayControl.c **** enum RelayState_E NegRelayFeedback()
  92:RelayControl.c **** {
 124              		.loc 1 92 0
 125              		.cfi_startproc
 126              		@ args = 0, pretend = 0, frame = 0
ARM GAS  C:\Users\Timmo\AppData\Local\Temp\ccbk2SVt.s 			page 5


 127              		@ frame_needed = 0, uses_anonymous_args = 0
 128 0000 08B5     		push	{r3, lr}
 129              		.cfi_def_cfa_offset 8
 130              		.cfi_offset 3, -8
 131              		.cfi_offset 14, -4
  93:RelayControl.c ****     //Confirm Timer has elapsed?
  94:RelayControl.c ****     return diBMS_RelayNegFdbk_read();
 132              		.loc 1 94 0
 133 0002 FFF7FEFF 		bl	diBMS_RelayNegFdbk_read
 134              	.LVL6:
  95:RelayControl.c **** }
 135              		.loc 1 95 0
 136 0006 C0B2     		uxtb	r0, r0
 137 0008 08BD     		pop	{r3, pc}
 138              		.cfi_endproc
 139              	.LFE3:
 140              		.size	NegRelayFeedback, .-NegRelayFeedback
 141              		.section	.text.CloseNegRelay,"ax",%progbits
 142              		.align	2
 143              		.global	CloseNegRelay
 144              		.thumb
 145              		.thumb_func
 146              		.type	CloseNegRelay, %function
 147              	CloseNegRelay:
 148              	.LFB2:
  63:RelayControl.c ****     //Dont close if BMS has faulted
 149              		.loc 1 63 0
 150              		.cfi_startproc
 151              		@ args = 0, pretend = 0, frame = 0
 152              		@ frame_needed = 0, uses_anonymous_args = 0
 153 0000 08B5     		push	{r3, lr}
 154              		.cfi_def_cfa_offset 8
 155              		.cfi_offset 3, -8
 156              		.cfi_offset 14, -4
  65:RelayControl.c ****     {
 157              		.loc 1 65 0
 158 0002 0E4B     		ldr	r3, .L17
 159 0004 1B78     		ldrb	r3, [r3]	@ zero_extendqisi2
 160 0006 072B     		cmp	r3, #7
 161 0008 14D0     		beq	.L13
 162              	.LBB6:
  67:RelayControl.c ****         NegRelay = RELAY_CLOSING;
 163              		.loc 1 67 0
 164 000a 0120     		movs	r0, #1
 165 000c FFF7FEFF 		bl	doBMS_RelayNegDrive_write
 166              	.LVL7:
  68:RelayControl.c ****         //implement delay to wait for closing
 167              		.loc 1 68 0
 168 0010 0122     		movs	r2, #1
 169 0012 0B4B     		ldr	r3, .L17+4
 170 0014 5A70     		strb	r2, [r3, #1]
  71:RelayControl.c ****         {
 171              		.loc 1 71 0
 172 0016 FFF7FEFF 		bl	NegRelayFeedback
 173              	.LVL8:
 174 001a 28B9     		cbnz	r0, .L14
 175              	.LBB7:
ARM GAS  C:\Users\Timmo\AppData\Local\Temp\ccbk2SVt.s 			page 6


  73:RelayControl.c ****             ClearDTC_f010_NegRelayWeldedClosed();
 176              		.loc 1 73 0
 177 001c 0022     		movs	r2, #0
 178 001e 084B     		ldr	r3, .L17+4
 179 0020 5A70     		strb	r2, [r3, #1]
  74:RelayControl.c ****         }
 180              		.loc 1 74 0
 181 0022 FFF7FEFF 		bl	ClearDTC_f010_NegRelayWeldedClosed
 182              	.LVL9:
 183              	.LBE7:
 184 0026 08BD     		pop	{r3, pc}
 185              	.L14:
 186              	.LBB8:
  78:RelayControl.c ****             SetDTC_f010_NegRelayWeldedClosed();
 187              		.loc 1 78 0
 188 0028 0422     		movs	r2, #4
 189 002a 054B     		ldr	r3, .L17+4
 190 002c 5A70     		strb	r2, [r3, #1]
  79:RelayControl.c ****         }        
 191              		.loc 1 79 0
 192 002e FFF7FEFF 		bl	SetDTC_f010_NegRelayWeldedClosed
 193              	.LVL10:
 194 0032 08BD     		pop	{r3, pc}
 195              	.L13:
 196              	.LBE8:
 197              	.LBE6:
 198              	.LBB9:
  85:RelayControl.c ****     }
 199              		.loc 1 85 0
 200 0034 FFF7FEFF 		bl	SetDTC_a010_NegRelayWontCloseInFault
 201              	.LVL11:
 202 0038 08BD     		pop	{r3, pc}
 203              	.L18:
 204 003a 00BF     		.align	2
 205              	.L17:
 206 003c 00000000 		.word	.LANCHOR0
 207 0040 00000000 		.word	.LANCHOR1
 208              	.LBE9:
 209              		.cfi_endproc
 210              	.LFE2:
 211              		.size	CloseNegRelay, .-CloseNegRelay
 212              		.section	.text.PerformPrecharge,"ax",%progbits
 213              		.align	2
 214              		.global	PerformPrecharge
 215              		.thumb
 216              		.thumb_func
 217              		.type	PerformPrecharge, %function
 218              	PerformPrecharge:
 219              	.LFB4:
  96:RelayControl.c **** 
  97:RelayControl.c ****     
  98:RelayControl.c ****     
  99:RelayControl.c ****     
 100:RelayControl.c **** void PerformPrecharge()
 101:RelayControl.c **** {
 220              		.loc 1 101 0
 221              		.cfi_startproc
ARM GAS  C:\Users\Timmo\AppData\Local\Temp\ccbk2SVt.s 			page 7


 222              		@ args = 0, pretend = 0, frame = 0
 223              		@ frame_needed = 0, uses_anonymous_args = 0
 102:RelayControl.c ****     //Check Negative Relay is already Closed
 103:RelayControl.c ****     if( RELAY_CLOSED == NegRelay )
 224              		.loc 1 103 0
 225 0000 0A4B     		ldr	r3, .L24
 226 0002 5B78     		ldrb	r3, [r3, #1]	@ zero_extendqisi2
 227 0004 8BB9     		cbnz	r3, .L23
 101:RelayControl.c ****     //Check Negative Relay is already Closed
 228              		.loc 1 101 0
 229 0006 10B5     		push	{r4, lr}
 230              		.cfi_def_cfa_offset 8
 231              		.cfi_offset 4, -8
 232              		.cfi_offset 14, -4
 233              	.LBB10:
 104:RelayControl.c ****     {
 105:RelayControl.c ****         //Confirm that the negative relay is already closed        
 106:RelayControl.c ****         doBMS_RelayPreCharge_write(CLOSE);
 234              		.loc 1 106 0
 235 0008 0120     		movs	r0, #1
 236 000a FFF7FEFF 		bl	doBMS_RelayPreCharge_write
 237              	.LVL12:
 238              	.LBB11:
 107:RelayControl.c ****         //Wait Precharge RC time
 108:RelayControl.c ****         //
 109:RelayControl.c ****         //Check Voltage delta is below threshold <--! ToDo: Ensure that this is made ABS delta
 110:RelayControl.c ****         if ( (aiBMS_outputVoltage_read() - aiBMS_packVoltage_read()) < PRECHARGE_DELTA_V )
 239              		.loc 1 110 0
 240 000e FFF7FEFF 		bl	aiBMS_outputVoltage_read
 241              	.LVL13:
 242 0012 0446     		mov	r4, r0
 243 0014 FFF7FEFF 		bl	aiBMS_packVoltage_read
 244              	.LVL14:
 245 0018 201A     		subs	r0, r4, r0
 246 001a 0928     		cmp	r0, #9
 247 001c 02DC     		bgt	.L21
 248              	.LBB12:
 111:RelayControl.c ****         {
 112:RelayControl.c ****             ClearDTC_f014_PrechareFailure();
 249              		.loc 1 112 0
 250 001e FFF7FEFF 		bl	ClearDTC_f014_PrechareFailure
 251              	.LVL15:
 113:RelayControl.c ****             //What are we returning to flag success?
 114:RelayControl.c ****             return;
 252              		.loc 1 114 0
 253 0022 10BD     		pop	{r4, pc}
 254              	.L21:
 255              	.LBE12:
 256              	.LBB13:
 115:RelayControl.c ****         }
 116:RelayControl.c ****         else
 117:RelayControl.c ****         {
 118:RelayControl.c ****             SetDTC_f014_PrechareFailure();
 257              		.loc 1 118 0
 258 0024 FFF7FEFF 		bl	SetDTC_f014_PrechareFailure
 259              	.LVL16:
 260 0028 10BD     		pop	{r4, pc}
ARM GAS  C:\Users\Timmo\AppData\Local\Temp\ccbk2SVt.s 			page 8


 261              	.L23:
 262              		.cfi_def_cfa_offset 0
 263              		.cfi_restore 4
 264              		.cfi_restore 14
 265 002a 7047     		bx	lr
 266              	.L25:
 267              		.align	2
 268              	.L24:
 269 002c 00000000 		.word	.LANCHOR1
 270              	.LBE13:
 271              	.LBE11:
 272              	.LBE10:
 273              		.cfi_endproc
 274              	.LFE4:
 275              		.size	PerformPrecharge, .-PerformPrecharge
 276              		.global	PrechargeRelay
 277              		.global	NegRelay
 278              		.global	PosRelay
 279              		.global	BMS_State
 280              		.data
 281              		.set	.LANCHOR1,. + 0
 282              		.type	PosRelay, %object
 283              		.size	PosRelay, 1
 284              	PosRelay:
 285 0000 05       		.byte	5
 286              		.type	NegRelay, %object
 287              		.size	NegRelay, 1
 288              	NegRelay:
 289 0001 05       		.byte	5
 290              		.type	PrechargeRelay, %object
 291              		.size	PrechargeRelay, 1
 292              	PrechargeRelay:
 293 0002 05       		.byte	5
 294              		.bss
 295              		.set	.LANCHOR0,. + 0
 296              		.type	BMS_State, %object
 297              		.size	BMS_State, 1
 298              	BMS_State:
 299 0000 00       		.space	1
 300              		.text
 301              	.Letext0:
 302              		.file 2 "RelayControl.h"
 303              		.file 3 "mainState.h"