ARM GAS  C:\Users\Timmo\AppData\Local\Temp\ccqfcyxc.s 			page 1


   1              		.syntax unified
   2              		.cpu cortex-m3
   3              		.fpu softvfp
   4              		.eabi_attribute 20, 1
   5              		.eabi_attribute 21, 1
   6              		.eabi_attribute 23, 3
   7              		.eabi_attribute 24, 1
   8              		.eabi_attribute 25, 1
   9              		.eabi_attribute 26, 1
  10              		.eabi_attribute 30, 1
  11              		.eabi_attribute 34, 1
  12              		.eabi_attribute 18, 4
  13              		.thumb
  14              		.syntax unified
  15              		.file	"TempSense.c"
  16              		.text
  17              	.Ltext0:
  18              		.cfi_sections	.debug_frame
  19              		.section	.text.ReadTempSensors,"ax",%progbits
  20              		.align	2
  21              		.global	ReadTempSensors
  22              		.thumb
  23              		.thumb_func
  24              		.type	ReadTempSensors, %function
  25              	ReadTempSensors:
  26              	.LFB0:
  27              		.file 1 "TempSense.c"
   1:TempSense.c   **** /* ========================================
   2:TempSense.c   ****  *
   3:TempSense.c   ****  * Copyright YOUR COMPANY, THE YEAR
   4:TempSense.c   ****  * All Rights Reserved
   5:TempSense.c   ****  * UNPUBLISHED, LICENSED SOFTWARE.
   6:TempSense.c   ****  *
   7:TempSense.c   ****  * CONFIDENTIAL AND PROPRIETARY INFORMATION
   8:TempSense.c   ****  * WHICH IS THE PROPERTY OF your company.
   9:TempSense.c   ****  *
  10:TempSense.c   ****  * ========================================
  11:TempSense.c   **** */
  12:TempSense.c   **** //PUT THESE INTO TEMPSENSE.H
  13:TempSense.c   **** 
  14:TempSense.c   **** #include "TempSense.h"
  15:TempSense.c   **** #include "SPI.h"
  16:TempSense.c   **** 
  17:TempSense.c   **** 
  18:TempSense.c   **** ReadTempSensors()
  19:TempSense.c   **** {
  28              		.loc 1 19 0
  29              		.cfi_startproc
  30              		@ args = 0, pretend = 0, frame = 0
  31              		@ frame_needed = 0, uses_anonymous_args = 0
  32 0000 38B5     		push	{r3, r4, r5, lr}
  33              		.cfi_def_cfa_offset 16
  34              		.cfi_offset 3, -16
  35              		.cfi_offset 4, -12
  36              		.cfi_offset 5, -8
  37              		.cfi_offset 14, -4
  38              	.LVL0:
ARM GAS  C:\Users\Timmo\AppData\Local\Temp\ccqfcyxc.s 			page 2


  20:TempSense.c   **** 	//Initializing Variables to 0.
  21:TempSense.c   **** 	int temp = 0;
  22:TempSense.c   **** 	tempMax = 0;
  39              		.loc 1 22 0
  40 0002 1C4B     		ldr	r3, .L9
  41 0004 0025     		movs	r5, #0
  42 0006 1D60     		str	r5, [r3]
  23:TempSense.c   **** 	tempMaxLocation = 0;
  43              		.loc 1 23 0
  44 0008 5D60     		str	r5, [r3, #4]
  24:TempSense.c   **** 	tempMin = 0;
  45              		.loc 1 24 0
  46 000a 9D60     		str	r5, [r3, #8]
  25:TempSense.c   **** 	tempMinLocation = 0;
  47              		.loc 1 25 0
  48 000c DD60     		str	r5, [r3, #12]
  26:TempSense.c   **** 	tempAverage = 0;
  49              		.loc 1 26 0
  50 000e 1D61     		str	r5, [r3, #16]
  27:TempSense.c   **** 	numValidSensors = 0;
  51              		.loc 1 27 0
  52 0010 5D61     		str	r5, [r3, #20]
  53              	.LVL1:
  54              	.L7:
  55              	.LBB2:
  56              	.LBB3:
  28:TempSense.c   **** 
  29:TempSense.c   ****     //For Loop
  30:TempSense.c   **** 	for(int i = 0; NUM_LTC_CHIPS; i++)
  31:TempSense.c   **** 	{
  32:TempSense.c   **** 		for(int j = 0; NUM_NTC_PER_LTC; j++)
  33:TempSense.c   **** 		{
  34:TempSense.c   **** 			//Do a plausability check
  35:TempSense.c   **** 			temp = GetNTCFromSPI();
  57              		.loc 1 35 0
  58 0012 FFF7FEFF 		bl	GetNTCFromSPI
  59              	.LVL2:
  60 0016 0446     		mov	r4, r0
  61              	.LVL3:
  36:TempSense.c   **** 			if (temp > NTC_MAXPLAUSABLE)
  62              		.loc 1 36 0
  63 0018 6428     		cmp	r0, #100
  64 001a 04DD     		ble	.L2
  65              	.LBB4:
  37:TempSense.c   **** 			{
  38:TempSense.c   **** 				SetDTC_a020_invalidTempHigh(i,j);
  66              		.loc 1 38 0
  67 001c 2946     		mov	r1, r5
  68 001e 0020     		movs	r0, #0
  69              	.LVL4:
  70 0020 FFF7FEFF 		bl	SetDTC_a020_invalidTempHigh
  71              	.LVL5:
  72              	.LBE4:
  73 0024 24E0     		b	.L3
  74              	.LVL6:
  75              	.L2:
  39:TempSense.c   **** 			}
ARM GAS  C:\Users\Timmo\AppData\Local\Temp\ccqfcyxc.s 			page 3


  40:TempSense.c   **** 			else if (temp < NTC_MINPLAUSABLE)
  76              		.loc 1 40 0
  77 0026 6328     		cmp	r0, #99
  78 0028 04DC     		bgt	.L4
  79              	.LBB5:
  41:TempSense.c   **** 			{
  42:TempSense.c   **** 				SetDTC_a021_invalidTempLow(i,j);
  80              		.loc 1 42 0
  81 002a 2946     		mov	r1, r5
  82 002c 0020     		movs	r0, #0
  83              	.LVL7:
  84 002e FFF7FEFF 		bl	SetDTC_a021_invalidTempLow
  85              	.LVL8:
  86              	.LBE5:
  87 0032 1DE0     		b	.L3
  88              	.LVL9:
  89              	.L4:
  90              	.LBB6:
  43:TempSense.c   **** 			}
  44:TempSense.c   **** 			else
  45:TempSense.c   **** 			{
  46:TempSense.c   **** 				ClearDTC_a020_invalidTempHigh(i,j);
  91              		.loc 1 46 0
  92 0034 2946     		mov	r1, r5
  93 0036 0020     		movs	r0, #0
  94              	.LVL10:
  95 0038 FFF7FEFF 		bl	ClearDTC_a020_invalidTempHigh
  96              	.LVL11:
  47:TempSense.c   **** 				ClearDTC_a021_invalidTempLow(i,j);
  97              		.loc 1 47 0
  98 003c 2946     		mov	r1, r5
  99 003e 0020     		movs	r0, #0
 100 0040 FFF7FEFF 		bl	ClearDTC_a021_invalidTempLow
 101              	.LVL12:
  48:TempSense.c   **** 
  49:TempSense.c   **** 				//Update max and min values
  50:TempSense.c   **** 				if( temp > tempMax)
 102              		.loc 1 50 0
 103 0044 0B4B     		ldr	r3, .L9
 104 0046 1B68     		ldr	r3, [r3]
 105 0048 9C42     		cmp	r4, r3
 106 004a 03DD     		ble	.L5
  51:TempSense.c   **** 				{
  52:TempSense.c   **** 					tempMax = temp;
 107              		.loc 1 52 0
 108 004c 094B     		ldr	r3, .L9
 109 004e 1C60     		str	r4, [r3]
  53:TempSense.c   **** 					tempMaxLocation = (i * NUM_LTC_CHIPS) + j;
 110              		.loc 1 53 0
 111 0050 5D60     		str	r5, [r3, #4]
 112 0052 06E0     		b	.L6
 113              	.L5:
  54:TempSense.c   **** 				}
  55:TempSense.c   **** 				else if( temp < tempMin)
 114              		.loc 1 55 0
 115 0054 074B     		ldr	r3, .L9
 116 0056 9B68     		ldr	r3, [r3, #8]
ARM GAS  C:\Users\Timmo\AppData\Local\Temp\ccqfcyxc.s 			page 4


 117 0058 9C42     		cmp	r4, r3
 118 005a 02DA     		bge	.L6
  56:TempSense.c   **** 				{
  57:TempSense.c   **** 					tempMin = temp;
 119              		.loc 1 57 0
 120 005c 054B     		ldr	r3, .L9
 121 005e 9C60     		str	r4, [r3, #8]
  58:TempSense.c   **** 					tempMinLocation = (i * NUM_LTC_CHIPS) + j;
 122              		.loc 1 58 0
 123 0060 DD60     		str	r5, [r3, #12]
 124              	.L6:
  59:TempSense.c   **** 				}
  60:TempSense.c   **** 
  61:TempSense.c   **** 				//Update the average Temp
  62:TempSense.c   **** 				tempAverage += temp;
 125              		.loc 1 62 0
 126 0062 044B     		ldr	r3, .L9
 127 0064 1A69     		ldr	r2, [r3, #16]
 128 0066 1444     		add	r4, r4, r2
 129              	.LVL13:
 130 0068 1C61     		str	r4, [r3, #16]
  63:TempSense.c   **** 				numValidSensors++;
 131              		.loc 1 63 0
 132 006a 5A69     		ldr	r2, [r3, #20]
 133 006c 0132     		adds	r2, r2, #1
 134 006e 5A61     		str	r2, [r3, #20]
 135              	.L3:
 136              	.LBE6:
  32:TempSense.c   **** 		{
 137              		.loc 1 32 0
 138 0070 0135     		adds	r5, r5, #1
 139              	.LVL14:
  64:TempSense.c   **** 			}
  65:TempSense.c   **** 
  66:TempSense.c   **** 		}//end j loop
 140              		.loc 1 66 0
 141 0072 CEE7     		b	.L7
 142              	.L10:
 143              		.align	2
 144              	.L9:
 145 0074 00000000 		.word	.LANCHOR0
 146              	.LBE3:
 147              	.LBE2:
 148              		.cfi_endproc
 149              	.LFE0:
 150              		.size	ReadTempSensors, .-ReadTempSensors
 151              		.section	.text.SetMessage_CellTemps,"ax",%progbits
 152              		.align	2
 153              		.global	SetMessage_CellTemps
 154              		.thumb
 155              		.thumb_func
 156              		.type	SetMessage_CellTemps, %function
 157              	SetMessage_CellTemps:
 158              	.LFB1:
  67:TempSense.c   **** 	}//end i loop
  68:TempSense.c   **** 
  69:TempSense.c   **** 	tempAverage = tempAverage/numValidSensors;  
ARM GAS  C:\Users\Timmo\AppData\Local\Temp\ccqfcyxc.s 			page 5


  70:TempSense.c   ****     
  71:TempSense.c   ****     SetMessage_CellTemps();    
  72:TempSense.c   ****     
  73:TempSense.c   **** }
  74:TempSense.c   **** 
  75:TempSense.c   **** 
  76:TempSense.c   **** SetMessage_CellTemps()
  77:TempSense.c   **** {
 159              		.loc 1 77 0
 160              		.cfi_startproc
 161              		@ args = 0, pretend = 0, frame = 0
 162              		@ frame_needed = 0, uses_anonymous_args = 0
 163              		@ link register save eliminated.
 164 0000 7047     		bx	lr
 165              		.cfi_endproc
 166              	.LFE1:
 167              		.size	SetMessage_CellTemps, .-SetMessage_CellTemps
 168              		.global	numValidSensors
 169              		.global	tempAverage
 170              		.global	tempMinLocation
 171              		.global	tempMin
 172              		.global	tempMaxLocation
 173              		.global	tempMax
 174 0002 00BF     		.bss
 175              		.align	2
 176              		.set	.LANCHOR0,. + 0
 177              		.type	tempMax, %object
 178              		.size	tempMax, 4
 179              	tempMax:
 180 0000 00000000 		.space	4
 181              		.type	tempMaxLocation, %object
 182              		.size	tempMaxLocation, 4
 183              	tempMaxLocation:
 184 0004 00000000 		.space	4
 185              		.type	tempMin, %object
 186              		.size	tempMin, 4
 187              	tempMin:
 188 0008 00000000 		.space	4
 189              		.type	tempMinLocation, %object
 190              		.size	tempMinLocation, 4
 191              	tempMinLocation:
 192 000c 00000000 		.space	4
 193              		.type	tempAverage, %object
 194              		.size	tempAverage, 4
 195              	tempAverage:
 196 0010 00000000 		.space	4
 197              		.type	numValidSensors, %object
 198              		.size	numValidSensors, 4
 199              	numValidSensors:
 200 0014 00000000 		.space	4
 201              		.text
 202              	.Letext0:
 203              		.file 2 "TempSense.h"
 204              		.file 3 "SPI.h"