ARM GAS  C:\Users\Timmo\AppData\Local\Temp\ccWLihGk.s 			page 1


   1              		.syntax unified
   2              		.cpu cortex-m3
   3              		.fpu softvfp
   4              		.eabi_attribute 20, 1
   5              		.eabi_attribute 21, 1
   6              		.eabi_attribute 23, 3
   7              		.eabi_attribute 24, 1
   8              		.eabi_attribute 25, 1
   9              		.eabi_attribute 26, 1
  10              		.eabi_attribute 30, 1
  11              		.eabi_attribute 34, 1
  12              		.eabi_attribute 18, 4
  13              		.thumb
  14              		.syntax unified
  15              		.file	"Timer.c"
  16              		.text
  17              	.Ltext0:
  18              		.cfi_sections	.debug_frame
  19              		.section	.text.GlobalTimer_Init,"ax",%progbits
  20              		.align	2
  21              		.global	GlobalTimer_Init
  22              		.thumb
  23              		.thumb_func
  24              		.type	GlobalTimer_Init, %function
  25              	GlobalTimer_Init:
  26              	.LFB0:
  27              		.file 1 "Timer.c"
   1:Timer.c       **** /* ========================================
   2:Timer.c       ****  *
   3:Timer.c       ****  * Copyright YOUR COMPANY, THE YEAR
   4:Timer.c       ****  * All Rights Reserved
   5:Timer.c       ****  * UNPUBLISHED, LICENSED SOFTWARE.
   6:Timer.c       ****  *
   7:Timer.c       ****  * CONFIDENTIAL AND PROPRIETARY INFORMATION
   8:Timer.c       ****  * WHICH IS THE PROPERTY OF your company.
   9:Timer.c       ****  *
  10:Timer.c       ****  * ========================================
  11:Timer.c       **** */
  12:Timer.c       **** 
  13:Timer.c       **** #include "Timer.h"
  14:Timer.c       **** #include "global.h"
  15:Timer.c       **** 
  16:Timer.c       **** //Global Variables
  17:Timer.c       **** unsigned long CAN_MIA_StartTime =0;
  18:Timer.c       **** 
  19:Timer.c       **** 
  20:Timer.c       **** 
  21:Timer.c       **** //-------------------------------------------
  22:Timer.c       **** 
  23:Timer.c       **** //
  24:Timer.c       **** GlobalTimer_Init()
  25:Timer.c       **** {
  28              		.loc 1 25 0
  29              		.cfi_startproc
  30              		@ args = 0, pretend = 0, frame = 0
  31              		@ frame_needed = 0, uses_anonymous_args = 0
  32 0000 08B5     		push	{r3, lr}
ARM GAS  C:\Users\Timmo\AppData\Local\Temp\ccWLihGk.s 			page 2


  33              		.cfi_def_cfa_offset 8
  34              		.cfi_offset 3, -8
  35              		.cfi_offset 14, -4
  26:Timer.c       ****     //Start Clock
  27:Timer.c       ****     Global_Timer_start();
  36              		.loc 1 27 0
  37 0002 FFF7FEFF 		bl	Global_Timer_start
  38              	.LVL0:
  39 0006 08BD     		pop	{r3, pc}
  40              		.cfi_endproc
  41              	.LFE0:
  42              		.size	GlobalTimer_Init, .-GlobalTimer_Init
  43              		.section	.text.GetGlobalTime,"ax",%progbits
  44              		.align	2
  45              		.global	GetGlobalTime
  46              		.thumb
  47              		.thumb_func
  48              		.type	GetGlobalTime, %function
  49              	GetGlobalTime:
  50              	.LFB1:
  28:Timer.c       ****     
  29:Timer.c       **** }
  30:Timer.c       **** 
  31:Timer.c       **** //-------------------------------------------
  32:Timer.c       **** 
  33:Timer.c       **** //setup timer functions
  34:Timer.c       **** GetGlobalTime()
  35:Timer.c       **** {
  51              		.loc 1 35 0
  52              		.cfi_startproc
  53              		@ args = 0, pretend = 0, frame = 0
  54              		@ frame_needed = 0, uses_anonymous_args = 0
  55 0000 08B5     		push	{r3, lr}
  56              		.cfi_def_cfa_offset 8
  57              		.cfi_offset 3, -8
  58              		.cfi_offset 14, -4
  36:Timer.c       ****     return Global_Timer_ReadCounter();
  59              		.loc 1 36 0
  60 0002 FFF7FEFF 		bl	Global_Timer_ReadCounter
  61              	.LVL1:
  37:Timer.c       **** }
  62              		.loc 1 37 0
  63 0006 08BD     		pop	{r3, pc}
  64              		.cfi_endproc
  65              	.LFE1:
  66              		.size	GetGlobalTime, .-GetGlobalTime
  67              		.section	.text.CAN_MIA_Expired,"ax",%progbits
  68              		.align	2
  69              		.global	CAN_MIA_Expired
  70              		.thumb
  71              		.thumb_func
  72              		.type	CAN_MIA_Expired, %function
  73              	CAN_MIA_Expired:
  74              	.LFB2:
  38:Timer.c       **** 
  39:Timer.c       **** //-------------------------------------------
  40:Timer.c       **** 
ARM GAS  C:\Users\Timmo\AppData\Local\Temp\ccWLihGk.s 			page 3


  41:Timer.c       **** 
  42:Timer.c       **** _Bool CAN_MIA_Expired()
  43:Timer.c       **** {
  75              		.loc 1 43 0
  76              		.cfi_startproc
  77              		@ args = 0, pretend = 0, frame = 0
  78              		@ frame_needed = 0, uses_anonymous_args = 0
  79 0000 10B5     		push	{r4, lr}
  80              		.cfi_def_cfa_offset 8
  81              		.cfi_offset 4, -8
  82              		.cfi_offset 14, -4
  83              	.LVL2:
  44:Timer.c       ****     _Bool result = FALSE;
  45:Timer.c       ****     unsigned int deltaTime = (GetGlobalTime() - CAN_MIA_GetStartTime())*BUSCLOCK_BASE;
  84              		.loc 1 45 0
  85 0002 FFF7FEFF 		bl	GetGlobalTime
  86              	.LVL3:
  87 0006 0446     		mov	r4, r0
  88 0008 FFF7FEFF 		bl	CAN_MIA_GetStartTime
  89              	.LVL4:
  90 000c 201A     		subs	r0, r4, r0
  91 000e 064B     		ldr	r3, .L9
  92 0010 83FB0023 		smull	r2, r3, r3, r0
  93 0014 C017     		asrs	r0, r0, #31
  94 0016 C0EB6310 		rsb	r0, r0, r3, asr #5
  95              	.LVL5:
  46:Timer.c       ****     if ( deltaTime > CAN_MIA_TIMEOUT)
  96              		.loc 1 46 0
  97 001a 1428     		cmp	r0, #20
  98 001c 01D8     		bhi	.L7
  44:Timer.c       ****     _Bool result = FALSE;
  99              		.loc 1 44 0
 100 001e 0020     		movs	r0, #0
 101              	.LVL6:
 102 0020 10BD     		pop	{r4, pc}
 103              	.LVL7:
 104              	.L7:
  47:Timer.c       ****     {
  48:Timer.c       ****         result = TRUE;
 105              		.loc 1 48 0
 106 0022 0120     		movs	r0, #1
 107              	.LVL8:
  49:Timer.c       ****     }
  50:Timer.c       ****     return result;
  51:Timer.c       **** }
 108              		.loc 1 51 0
 109 0024 10BD     		pop	{r4, pc}
 110              	.L10:
 111 0026 00BF     		.align	2
 112              	.L9:
 113 0028 15024D21 		.word	558694933
 114              		.cfi_endproc
 115              	.LFE2:
 116              		.size	CAN_MIA_Expired, .-CAN_MIA_Expired
 117              		.section	.text.CAN_MIA_SetStartTime,"ax",%progbits
 118              		.align	2
 119              		.global	CAN_MIA_SetStartTime
ARM GAS  C:\Users\Timmo\AppData\Local\Temp\ccWLihGk.s 			page 4


 120              		.thumb
 121              		.thumb_func
 122              		.type	CAN_MIA_SetStartTime, %function
 123              	CAN_MIA_SetStartTime:
 124              	.LFB3:
  52:Timer.c       **** 
  53:Timer.c       **** CAN_MIA_SetStartTime()
  54:Timer.c       **** {
 125              		.loc 1 54 0
 126              		.cfi_startproc
 127              		@ args = 0, pretend = 0, frame = 0
 128              		@ frame_needed = 0, uses_anonymous_args = 0
 129 0000 08B5     		push	{r3, lr}
 130              		.cfi_def_cfa_offset 8
 131              		.cfi_offset 3, -8
 132              		.cfi_offset 14, -4
  55:Timer.c       ****     unsigned long StartTime = GetGlobalTime();
 133              		.loc 1 55 0
 134 0002 FFF7FEFF 		bl	GetGlobalTime
 135              	.LVL9:
  56:Timer.c       **** }
 136              		.loc 1 56 0
 137 0006 08BD     		pop	{r3, pc}
 138              		.cfi_endproc
 139              	.LFE3:
 140              		.size	CAN_MIA_SetStartTime, .-CAN_MIA_SetStartTime
 141              		.global	CAN_MIA_StartTime
 142              		.bss
 143              		.align	2
 144              		.type	CAN_MIA_StartTime, %object
 145              		.size	CAN_MIA_StartTime, 4
 146              	CAN_MIA_StartTime:
 147 0000 00000000 		.space	4
 148              		.text
 149              	.Letext0: